; Function Attrs: nounwind uwtable
define internal i32 @dissect_ndps_pdu(ptr noundef %0, ptr noundef %1, ptr noundef %2, ptr readnone captures(none) %3) #0 {
  %5 = getelementptr inbounds nuw i8, ptr %1, i64 8
  %6 = load ptr, ptr %5, align 8
  tail call void @col_set_str(ptr noundef %6, i32 noundef 34, ptr noundef nonnull @.str.541) #6
  %7 = load ptr, ptr %5, align 8
  tail call void @col_clear(ptr noundef %7, i32 noundef 25) #6
  %8 = load i32, ptr @proto_ndps, align 4
  %9 = tail call ptr @proto_tree_add_item(ptr noundef %2, i32 noundef %8, ptr noundef %0, i32 noundef 0, i32 noundef -1, i32 noundef 0) #6
  %10 = load i32, ptr @ett_ndps, align 4
  %11 = tail call ptr @proto_item_add_subtree(ptr noundef %9, i32 noundef %10) #6
  tail call fastcc void @dissect_ndps(ptr noundef %0, ptr noundef %1, ptr noundef %11)
  %12 = tail call i32 @tvb_captured_length(ptr noundef %0) #6
  ret i32 %12
}